target datalayout = "e-m:e-p270:32:32-p271:32:32-p272:64:64-i64:64-i128:128-f80:128-n8:16:32:64-S128"
target triple = "x86_64-pc-linux-gnu"

%struct.LogicalRepCtxStruct = type { i32, i32, i64, [0 x %struct.LogicalRepWorker] }
%struct.LogicalRepWorker = type { i32, i64, i8, i16, ptr, i32, i32, i32, i32, i8, i64, i8, ptr, i32, i8, i64, i64, i64, i64, i64 }
%union.LWLockPadded = type { %struct.LWLock, [112 x i8] }
%struct.LWLock = type { i16, %struct.pg_atomic_uint32, %struct.proclist_head }
%struct.pg_atomic_uint32 = type { i32 }
%struct.proclist_head = type { i32, i32 }
%struct.PGPROC = type { %struct.dlist_node, ptr, ptr, i32, %struct.Latch, i32, i32, i32, i32, %struct.anon, i32, i32, i32, i8, i8, i8, i8, %struct.proclist_node, %struct.proclist_node, ptr, ptr, i32, i32, %struct.pg_atomic_uint64, i32, i8, i64, i32, %struct.dlist_node, [16 x %struct.dlist_head], %struct.XidCacheStatus, %struct.XidCache, i8, %struct.pg_atomic_uint32, i32, i32, i8, %struct.pg_atomic_uint32, i32, i32, i64, i64, %struct.LWLock, ptr, ptr, i8, i32, ptr, %struct.dlist_head, %struct.dlist_node }
%struct.Latch = type { i32, i32, i8, i32 }
%struct.anon = type { i32, i32 }
%struct.proclist_node = type { i32, i32 }
%struct.pg_atomic_uint64 = type { i64 }
%struct.XidCacheStatus = type { i8, i8 }
%struct.XidCache = type { [64 x i32] }
%struct.dlist_head = type { %struct.dlist_node }
%struct.dlist_node = type { ptr, ptr }

@max_logical_replication_workers = dso_local global i32 4, align 4
@LogicalRepCtx = internal global ptr null, align 8
@MainLWLockArray = external global ptr, align 8

; Function Attrs: nounwind uwtable
define dso_local i32 @GetLeaderApplyWorkerPid(i32 noundef %0) #0 {
  %2 = alloca i32, align 4
  %3 = alloca i32, align 4
  %4 = alloca i32, align 4
  %5 = alloca ptr, align 8
  %6 = alloca i32, align 4
  store i32 %0, ptr %2, align 4
  call void @llvm.lifetime.start.p0(i64 4, ptr %3) #9
  store i32 -1, ptr %3, align 4
  call void @llvm.lifetime.start.p0(i64 4, ptr %4) #9
  %7 = load ptr, ptr @MainLWLockArray, align 8
  %8 = getelementptr inbounds %union.LWLockPadded, ptr %7, i64 43
  %9 = call zeroext i1 @LWLockAcquire(ptr noundef %8, i32 noundef 1)
  store i32 0, ptr %4, align 4
  br label %10

10:                                               ; preds = %50, %1
  %11 = load i32, ptr %4, align 4
  %12 = load i32, ptr @max_logical_replication_workers, align 4
  %13 = icmp slt i32 %11, %12
  br i1 %13, label %14, label %53

14:                                               ; preds = %10
  call void @llvm.lifetime.start.p0(i64 8, ptr %5) #9
  %15 = load ptr, ptr @LogicalRepCtx, align 8
  %16 = getelementptr inbounds nuw %struct.LogicalRepCtxStruct, ptr %15, i32 0, i32 3
  %17 = load i32, ptr %4, align 4
  %18 = sext i32 %17 to i64
  %19 = getelementptr inbounds [0 x %struct.LogicalRepWorker], ptr %16, i64 0, i64 %18
  store ptr %19, ptr %5, align 8
  %20 = load ptr, ptr %5, align 8
  %21 = getelementptr inbounds nuw %struct.LogicalRepWorker, ptr %20, i32 0, i32 2
  %22 = load i8, ptr %21, align 8, !range !4, !noundef !5
  %23 = trunc i8 %22 to i1
  br i1 %23, label %24, label %46

24:                                               ; preds = %14
  %25 = load ptr, ptr %5, align 8
  %26 = getelementptr inbounds nuw %struct.LogicalRepWorker, ptr %25, i32 0, i32 0
  %27 = load i32, ptr %26, align 8
  %28 = icmp eq i32 %27, 3
  br i1 %28, label %29, label %46

29:                                               ; preds = %24
  %30 = load ptr, ptr %5, align 8
  %31 = getelementptr inbounds nuw %struct.LogicalRepWorker, ptr %30, i32 0, i32 4
  %32 = load ptr, ptr %31, align 8
  %33 = icmp ne ptr %32, null
  br i1 %33, label %34, label %46

34:                                               ; preds = %29
  %35 = load i32, ptr %2, align 4
  %36 = load ptr, ptr %5, align 8
  %37 = getelementptr inbounds nuw %struct.LogicalRepWorker, ptr %36, i32 0, i32 4
  %38 = load ptr, ptr %37, align 8
  %39 = getelementptr inbounds nuw %struct.PGPROC, ptr %38, i32 0, i32 7
  %40 = load i32, ptr %39, align 4
  %41 = icmp eq i32 %35, %40
  br i1 %41, label %42, label %46

42:                                               ; preds = %34
  %43 = load ptr, ptr %5, align 8
  %44 = getelementptr inbounds nuw %struct.LogicalRepWorker, ptr %43, i32 0, i32 13
  %45 = load i32, ptr %44, align 8
  store i32 %45, ptr %3, align 4
  store i32 2, ptr %6, align 4
  br label %47

46:                                               ; preds = %34, %29, %24, %14
  store i32 0, ptr %6, align 4
  br label %47

47:                                               ; preds = %46, %42
  call void @llvm.lifetime.end.p0(i64 8, ptr %5) #9
  %48 = load i32, ptr %6, align 4
  switch i32 %48, label %57 [
    i32 0, label %49
    i32 2, label %53
  ]

49:                                               ; preds = %47
  br label %50

50:                                               ; preds = %49
  %51 = load i32, ptr %4, align 4
  %52 = add i32 %51, 1
  store i32 %52, ptr %4, align 4
  br label %10, !llvm.loop !20

53:                                               ; preds = %47, %10
  %54 = load ptr, ptr @MainLWLockArray, align 8
  %55 = getelementptr inbounds %union.LWLockPadded, ptr %54, i64 43
  call void @LWLockRelease(ptr noundef %55)
  %56 = load i32, ptr %3, align 4
  store i32 1, ptr %6, align 4
  call void @llvm.lifetime.end.p0(i64 4, ptr %4) #9
  call void @llvm.lifetime.end.p0(i64 4, ptr %3) #9
  ret i32 %56

57:                                               ; preds = %47
  unreachable
}