; Function Attrs: nounwind uwtable
define dso_local i32 @GetLeaderApplyWorkerPid(i32 noundef %0) local_unnamed_addr #2 {
  %2 = load ptr, ptr @MainLWLockArray, align 8
  %3 = getelementptr inbounds nuw i8, ptr %2, i64 5504
  %4 = tail call zeroext i1 @LWLockAcquire(ptr noundef nonnull %3, i32 noundef 1) #13
  %5 = load i32, ptr @max_logical_replication_workers, align 4
  %6 = icmp sgt i32 %5, 0
  br i1 %6, label %.lr.ph, label %.loopexit

.lr.ph:                                           ; preds = %1
  %7 = load ptr, ptr @LogicalRepCtx, align 8
  %8 = getelementptr inbounds nuw i8, ptr %7, i64 16
  %wide.trip.count = zext nneg i32 %5 to i64
  br label %9

9:                                                ; preds = %.lr.ph, %27
  %indvars.iv = phi i64 [ 0, %.lr.ph ], [ %indvars.iv.next, %27 ]
  %10 = getelementptr inbounds nuw [0 x %struct.LogicalRepWorker], ptr %8, i64 0, i64 %indvars.iv
  %11 = getelementptr inbounds nuw i8, ptr %10, i64 16
  %12 = load i8, ptr %11, align 8, !range !4, !noundef !5
  %13 = trunc nuw i8 %12 to i1
  br i1 %13, label %14, label %27

14:                                               ; preds = %9
  %15 = load i32, ptr %10, align 8
  %16 = icmp eq i32 %15, 3
  br i1 %16, label %17, label %27

17:                                               ; preds = %14
  %18 = getelementptr inbounds nuw i8, ptr %10, i64 24
  %19 = load ptr, ptr %18, align 8
  %.not = icmp eq ptr %19, null
  br i1 %.not, label %27, label %20

20:                                               ; preds = %17
  %21 = getelementptr inbounds nuw i8, ptr %19, i64 60
  %22 = load i32, ptr %21, align 4
  %23 = icmp eq i32 %0, %22
  br i1 %23, label %24, label %27

24:                                               ; preds = %20
  %25 = getelementptr inbounds nuw i8, ptr %10, i64 80
  %26 = load i32, ptr %25, align 8
  br label %.loopexit

27:                                               ; preds = %20, %17, %14, %9
  %indvars.iv.next = add nuw nsw i64 %indvars.iv, 1
  %exitcond.not = icmp eq i64 %indvars.iv.next, %wide.trip.count
  br i1 %exitcond.not, label %.loopexit, label %9, !llvm.loop !19

.loopexit:                                        ; preds = %27, %1, %24
  %.1 = phi i32 [ %26, %24 ], [ -1, %1 ], [ -1, %27 ]
  %28 = load ptr, ptr @MainLWLockArray, align 8
  %29 = getelementptr inbounds nuw i8, ptr %28, i64 5504
  tail call void @LWLockRelease(ptr noundef nonnull %29) #13
  ret i32 %.1
}